; Function Attrs: mustprogress nounwind uwtable
define dso_local { i64, i64 } @_ZNK4llvm19TargetFrameLowering22getFrameIndexReferenceERKNS_15MachineFunctionEiRNS_8RegisterE(ptr noundef nonnull readonly align 8 captures(none) dereferenceable(21) %0, ptr noundef nonnull align 8 dereferenceable(1041) %1, i32 noundef %2, ptr noundef nonnull writeonly align 4 captures(none) dereferenceable(4) initializes((0, 4)) %3) unnamed_addr #3 align 2 {
  %5 = getelementptr inbounds nuw i8, ptr %1, i64 48
  %6 = load ptr, ptr %5, align 8
  %7 = getelementptr inbounds nuw i8, ptr %1, i64 16
  %8 = load ptr, ptr %7, align 8
  %9 = load ptr, ptr %8, align 8
  %10 = getelementptr inbounds nuw i8, ptr %9, i64 200
  %11 = load ptr, ptr %10, align 8
  %12 = tail call noundef ptr %11(ptr noundef nonnull align 8 dereferenceable(288) %8) #9
  %13 = load ptr, ptr %12, align 8
  %14 = getelementptr inbounds nuw i8, ptr %13, i64 608
  %15 = load ptr, ptr %14, align 8
  %16 = tail call i32 %15(ptr noundef nonnull align 8 dereferenceable(308) %12, ptr noundef nonnull align 8 dereferenceable(1041) %1) #9
  store i32 %16, ptr %3, align 4
  %17 = getelementptr inbounds nuw i8, ptr %6, i64 8
  %18 = getelementptr inbounds nuw i8, ptr %6, i64 32
  %19 = load i32, ptr %18, align 8
  %20 = add i32 %19, %2
  %21 = zext i32 %20 to i64
  %22 = load ptr, ptr %17, align 8
  %23 = getelementptr inbounds nuw %"struct.llvm::MachineFrameInfo::StackObject", ptr %22, i64 %21
  %24 = load i64, ptr %23, align 8
  %25 = getelementptr inbounds nuw i8, ptr %6, i64 48
  %26 = load i64, ptr %25, align 8
  %27 = add i64 %26, %24
  %28 = getelementptr inbounds nuw i8, ptr %0, i64 16
  %29 = load i32, ptr %28, align 8
  %30 = sext i32 %29 to i64
  %31 = sub i64 %27, %30
  %32 = getelementptr inbounds nuw i8, ptr %6, i64 56
  %33 = load i64, ptr %32, align 8
  %34 = add i64 %31, %33
  %.fca.0.insert.i = insertvalue { i64, i64 } poison, i64 %34, 0
  %.fca.1.insert.i = insertvalue { i64, i64 } %.fca.0.insert.i, i64 0, 1
  ret { i64, i64 } %.fca.1.insert.i
}